; Function Attrs: mustprogress nounwind uwtable
define hidden noundef ptr @_ZN18FieldLayoutBuilder29get_or_create_contended_groupEi(ptr noundef nonnull align 8 dereferenceable(106) %0, i32 noundef %1) local_unnamed_addr #2 align 2 {
  %3 = getelementptr inbounds i8, ptr %0, i64 48
  %4 = load i32, ptr %3, align 8
  %5 = icmp sgt i32 %4, 0
  br i1 %5, label %.lr.ph, label %._crit_edge

.lr.ph:                                           ; preds = %2
  %6 = getelementptr inbounds i8, ptr %0, i64 56
  %7 = load ptr, ptr %6, align 8
  %wide.trip.count = zext nneg i32 %4 to i64
  br label %9

8:                                                ; preds = %9
  %indvars.iv.next = add nuw nsw i64 %indvars.iv, 1
  %exitcond.not = icmp eq i64 %indvars.iv.next, %wide.trip.count
  br i1 %exitcond.not, label %._crit_edge, label %9, !llvm.loop !24

9:                                                ; preds = %.lr.ph, %8
  %indvars.iv = phi i64 [ 0, %.lr.ph ], [ %indvars.iv.next, %8 ]
  %10 = getelementptr inbounds ptr, ptr %7, i64 %indvars.iv
  %11 = load ptr, ptr %10, align 8
  %12 = getelementptr inbounds i8, ptr %11, i64 24
  %13 = load i32, ptr %12, align 8
  %14 = icmp eq i32 %13, %1
  br i1 %14, label %.loopexit, label %8

._crit_edge:                                      ; preds = %8, %2
  %15 = tail call noundef ptr @_Z23resource_allocate_bytesmN17AllocFailStrategy13AllocFailEnumE(i64 noundef 32, i32 noundef 0) #13
  %16 = getelementptr inbounds i8, ptr %15, i64 24
  tail call void @llvm.memset.p0.i64(ptr noundef nonnull align 8 dereferenceable(24) %15, i8 0, i64 24, i1 false)
  store i32 %1, ptr %16, align 8
  %17 = getelementptr inbounds i8, ptr %15, i64 28
  store i32 0, ptr %17, align 4
  %18 = load i32, ptr %3, align 8
  %19 = getelementptr inbounds i8, ptr %0, i64 52
  %20 = load i32, ptr %19, align 4
  %21 = icmp eq i32 %18, %20
  br i1 %21, label %22, label %_ZN26GrowableArrayWithAllocatorIP10FieldGroup13GrowableArrayIS1_EE6appendERKS1_.exit

22:                                               ; preds = %._crit_edge
  %23 = add nsw i32 %18, 1
  %24 = icmp sgt i32 %18, -1
  %25 = xor i32 %18, -2147483648
  %26 = and i32 %25, %23
  %27 = icmp eq i32 %26, 0
  %28 = and i1 %24, %27
  %29 = tail call range(i32 0, 33) i32 @llvm.ctlz.i32(i32 %23, i1 true)
  %30 = sub nuw nsw i32 32, %29
  %31 = shl nuw i32 1, %30
  %.0.i.i.i.i = select i1 %28, i32 %23, i32 %31
  tail call void @_ZN26GrowableArrayWithAllocatorIP10FieldGroup13GrowableArrayIS1_EE9expand_toEi(ptr noundef nonnull align 8 dereferenceable(16) %3, i32 noundef %.0.i.i.i.i)
  %.pre.i = load i32, ptr %3, align 8
  br label %_ZN26GrowableArrayWithAllocatorIP10FieldGroup13GrowableArrayIS1_EE6appendERKS1_.exit

_ZN26GrowableArrayWithAllocatorIP10FieldGroup13GrowableArrayIS1_EE6appendERKS1_.exit: ; preds = %._crit_edge, %22
  %32 = phi i32 [ %.pre.i, %22 ], [ %18, %._crit_edge ]
  %33 = add nsw i32 %32, 1
  store i32 %33, ptr %3, align 8
  %34 = getelementptr inbounds i8, ptr %0, i64 56
  %35 = load ptr, ptr %34, align 8
  %36 = sext i32 %32 to i64
  %37 = getelementptr inbounds ptr, ptr %35, i64 %36
  store ptr %15, ptr %37, align 8
  br label %.loopexit

.loopexit:                                        ; preds = %9, %_ZN26GrowableArrayWithAllocatorIP10FieldGroup13GrowableArrayIS1_EE6appendERKS1_.exit
  %.07 = phi ptr [ %15, %_ZN26GrowableArrayWithAllocatorIP10FieldGroup13GrowableArrayIS1_EE6appendERKS1_.exit ], [ %11, %9 ]
  ret ptr %.07
}